target datalayout = "e-m:e-p270:32:32-p271:32:32-p272:64:64-i64:64-i128:128-f80:128-n8:16:32:64-S128"
target triple = "x86_64-pc-linux-gnu"

%class.OffMeshConnectionTool = type <{ %struct.SampleTool, ptr, [3 x float], i8, i8, i8, i8 }>
%struct.SampleTool = type { ptr }
%class.Sample = type { ptr, ptr, ptr, ptr, ptr, i8, float, float, float, float, float, float, float, float, float, float, float, float, float, i32, i8, i8, i8, ptr, [9 x ptr], ptr, %class.SampleDebugDraw }
%class.SampleDebugDraw = type { %class.DebugDrawGL }
%class.DebugDrawGL = type { %struct.duDebugDraw }
%struct.duDebugDraw = type { ptr }

; Function Attrs: mustprogress nounwind uwtable
define linkonce_odr dso_local noundef i32 @_Z6duRGBAiiii(i32 noundef %0, i32 noundef %1, i32 noundef %2, i32 noundef %3) #0 comdat {
  %5 = alloca i32, align 4
  %6 = alloca i32, align 4
  %7 = alloca i32, align 4
  %8 = alloca i32, align 4
  store i32 %0, ptr %5, align 4
  store i32 %1, ptr %6, align 4
  store i32 %2, ptr %7, align 4
  store i32 %3, ptr %8, align 4
  %9 = load i32, ptr %5, align 4
  %10 = load i32, ptr %6, align 4
  %11 = shl i32 %10, 8
  %12 = or i32 %9, %11
  %13 = load i32, ptr %7, align 4
  %14 = shl i32 %13, 16
  %15 = or i32 %12, %14
  %16 = load i32, ptr %8, align 4
  %17 = shl i32 %16, 24
  %18 = or i32 %15, %17
  ret i32 %18
}

; Function Attrs: mustprogress nounwind uwtable
define linkonce_odr dso_local noundef nonnull align 8 dereferenceable(8) ptr @_ZN6Sample12getDebugDrawEv(ptr noundef nonnull align 8 dereferenceable(200) %0) #0 comdat align 2 {
  %2 = alloca ptr, align 8
  store ptr %0, ptr %2, align 8
  %3 = load ptr, ptr %2, align 8
  %4 = getelementptr inbounds %class.Sample, ptr %3, i32 0, i32 26
  ret ptr %4
}

; Function Attrs: mustprogress uwtable
define dso_local void @_ZN21OffMeshConnectionTool12handleRenderEv(ptr noundef nonnull align 8 dereferenceable(31) %0) unnamed_addr #4 align 2 {
  %2 = alloca ptr, align 8
  %3 = alloca ptr, align 8
  %4 = alloca float, align 4
  %5 = alloca ptr, align 8
  store ptr %0, ptr %2, align 8
  %6 = load ptr, ptr %2, align 8
  %7 = getelementptr inbounds %class.OffMeshConnectionTool, ptr %6, i32 0, i32 1
  %8 = load ptr, ptr %7, align 8
  %9 = call noundef nonnull align 8 dereferenceable(8) ptr @_ZN6Sample12getDebugDrawEv(ptr noundef nonnull align 8 dereferenceable(200) %8)
  store ptr %9, ptr %3, align 8
  %10 = getelementptr inbounds %class.OffMeshConnectionTool, ptr %6, i32 0, i32 1
  %11 = load ptr, ptr %10, align 8
  %12 = load ptr, ptr %11, align 8
  %13 = getelementptr inbounds ptr, ptr %12, i64 18
  %14 = load ptr, ptr %13, align 8
  %15 = call noundef float %14(ptr noundef nonnull align 8 dereferenceable(200) %11)
  store float %15, ptr %4, align 4
  %16 = getelementptr inbounds %class.OffMeshConnectionTool, ptr %6, i32 0, i32 3
  %17 = load i8, ptr %16, align 4
  %18 = trunc i8 %17 to i1
  br i1 %18, label %19, label %33

19:                                               ; preds = %1
  %20 = load ptr, ptr %3, align 8
  %21 = getelementptr inbounds %class.OffMeshConnectionTool, ptr %6, i32 0, i32 2
  %22 = getelementptr inbounds [3 x float], ptr %21, i64 0, i64 0
  %23 = load float, ptr %22, align 8
  %24 = getelementptr inbounds %class.OffMeshConnectionTool, ptr %6, i32 0, i32 2
  %25 = getelementptr inbounds [3 x float], ptr %24, i64 0, i64 1
  %26 = load float, ptr %25, align 4
  %27 = fadd float %26, 0x3FB99999A0000000
  %28 = getelementptr inbounds %class.OffMeshConnectionTool, ptr %6, i32 0, i32 2
  %29 = getelementptr inbounds [3 x float], ptr %28, i64 0, i64 2
  %30 = load float, ptr %29, align 8
  %31 = load float, ptr %4, align 4
  %32 = call noundef i32 @_Z6duRGBAiiii(i32 noundef 0, i32 noundef 0, i32 noundef 0, i32 noundef 128)
  call void @_Z16duDebugDrawCrossP11duDebugDrawffffjf(ptr noundef %20, float noundef %23, float noundef %27, float noundef %30, float noundef %31, i32 noundef %32, float noundef 2.000000e+00)
  br label %33

33:                                               ; preds = %19, %1
  %34 = getelementptr inbounds %class.OffMeshConnectionTool, ptr %6, i32 0, i32 1
  %35 = load ptr, ptr %34, align 8
  %36 = load ptr, ptr %35, align 8
  %37 = getelementptr inbounds ptr, ptr %36, i64 14
  %38 = load ptr, ptr %37, align 8
  %39 = call noundef ptr %38(ptr noundef nonnull align 8 dereferenceable(200) %35)
  store ptr %39, ptr %5, align 8
  %40 = load ptr, ptr %5, align 8
  %41 = icmp ne ptr %40, null
  br i1 %41, label %42, label %45

42:                                               ; preds = %33
  %43 = load ptr, ptr %5, align 8
  %44 = load ptr, ptr %3, align 8
  call void @_ZN9InputGeom22drawOffMeshConnectionsEP11duDebugDrawb(ptr noundef nonnull align 8 dereferenceable(50312) %43, ptr noundef %44, i1 noundef zeroext true)
  br label %45

45:                                               ; preds = %42, %33
  ret void
}