; Function Attrs: mustprogress uwtable
define dso_local void @_ZN21OffMeshConnectionTool12handleRenderEv(ptr nocapture noundef nonnull readonly align 8 dereferenceable(31) %0) unnamed_addr #5 align 2 {
  %2 = getelementptr inbounds i8, ptr %0, i64 8
  %3 = load ptr, ptr %2, align 8
  %4 = getelementptr inbounds i8, ptr %3, i64 192
  %5 = load ptr, ptr %3, align 8
  %6 = getelementptr inbounds i8, ptr %5, i64 144
  %7 = load ptr, ptr %6, align 8
  %8 = tail call noundef float %7(ptr noundef nonnull align 8 dereferenceable(200) %3)
  %9 = getelementptr inbounds i8, ptr %0, i64 28
  %10 = load i8, ptr %9, align 4
  %11 = and i8 %10, 1
  %.not = icmp eq i8 %11, 0
  br i1 %.not, label %20, label %12

12:                                               ; preds = %1
  %13 = getelementptr inbounds i8, ptr %0, i64 16
  %14 = load float, ptr %13, align 8
  %15 = getelementptr inbounds i8, ptr %0, i64 20
  %16 = load float, ptr %15, align 4
  %17 = fadd float %16, 0x3FB99999A0000000
  %18 = getelementptr inbounds i8, ptr %0, i64 24
  %19 = load float, ptr %18, align 8
  tail call void @_Z16duDebugDrawCrossP11duDebugDrawffffjf(ptr noundef nonnull %4, float noundef %14, float noundef %17, float noundef %19, float noundef %8, i32 noundef -2147483648, float noundef 2.000000e+00)
  br label %20

20:                                               ; preds = %12, %1
  %21 = load ptr, ptr %2, align 8
  %22 = load ptr, ptr %21, align 8
  %23 = getelementptr inbounds i8, ptr %22, i64 112
  %24 = load ptr, ptr %23, align 8
  %25 = tail call noundef ptr %24(ptr noundef nonnull align 8 dereferenceable(200) %21)
  %.not6 = icmp eq ptr %25, null
  br i1 %.not6, label %27, label %26

26:                                               ; preds = %20
  tail call void @_ZN9InputGeom22drawOffMeshConnectionsEP11duDebugDrawb(ptr noundef nonnull align 8 dereferenceable(50312) %25, ptr noundef nonnull %4, i1 noundef zeroext true)
  br label %27

27:                                               ; preds = %26, %20
  ret void
}